; Function Attrs: nounwind uwtable
define dso_local noundef ptr @list_make2_impl(i32 noundef %0, ptr %1, ptr %2) local_unnamed_addr #0 {
  %4 = tail call ptr @palloc(i64 noundef 64) #9
  store i32 %0, ptr %4, align 8
  %5 = getelementptr inbounds nuw i8, ptr %4, i64 4
  store i32 2, ptr %5, align 4
  %6 = getelementptr inbounds nuw i8, ptr %4, i64 8
  store i32 5, ptr %6, align 8
  %7 = getelementptr inbounds nuw i8, ptr %4, i64 24
  %8 = getelementptr inbounds nuw i8, ptr %4, i64 16
  store ptr %7, ptr %8, align 8
  store ptr %1, ptr %7, align 8
  %9 = getelementptr inbounds nuw i8, ptr %4, i64 32
  store ptr %2, ptr %9, align 8
  ret ptr %4
}